; Function Attrs: mustprogress nounwind uwtable
define dso_local noundef ptr @_ZNK4llvm23ItaniumPartialDemangler21getFunctionReturnTypeEPcPm(ptr nocapture noundef nonnull readonly align 8 dereferenceable(16) %0, ptr noundef %1, ptr noundef %2) local_unnamed_addr #1 align 2 {
  %4 = alloca %"class.llvm::itanium_demangle::OutputBuffer", align 8
  %5 = load ptr, ptr %0, align 8
  %6 = getelementptr inbounds nuw i8, ptr %5, i64 8
  %7 = load i8, ptr %6, align 8
  %8 = icmp eq i8 %7, 19
  br i1 %8, label %9, label %45

9:                                                ; preds = %3
  %.not.i = icmp eq ptr %1, null
  br i1 %.not.i, label %_ZN4llvm16itanium_demangle12OutputBufferC2EPcPm.exit, label %.split.i

.split.i:                                         ; preds = %9
  %10 = load i64, ptr %2, align 8
  br label %_ZN4llvm16itanium_demangle12OutputBufferC2EPcPm.exit

_ZN4llvm16itanium_demangle12OutputBufferC2EPcPm.exit: ; preds = %9, %.split.i
  %.sink.i = phi i64 [ %10, %.split.i ], [ 0, %9 ]
  store ptr %1, ptr %4, align 8
  %11 = getelementptr inbounds nuw i8, ptr %4, i64 8
  store i64 0, ptr %11, align 8
  %12 = getelementptr inbounds nuw i8, ptr %4, i64 16
  store i64 %.sink.i, ptr %12, align 8
  %13 = getelementptr inbounds nuw i8, ptr %4, i64 24
  store i32 -1, ptr %13, align 8
  %14 = getelementptr inbounds nuw i8, ptr %4, i64 28
  store i32 -1, ptr %14, align 4
  %15 = getelementptr inbounds nuw i8, ptr %4, i64 32
  store i32 1, ptr %15, align 8
  %16 = getelementptr inbounds nuw i8, ptr %5, i64 16
  %17 = load ptr, ptr %16, align 8
  %.not = icmp eq ptr %17, null
  br i1 %.not, label %_ZNK4llvm16itanium_demangle4Node5printERNS0_12OutputBufferE.exit, label %18

18:                                               ; preds = %_ZN4llvm16itanium_demangle12OutputBufferC2EPcPm.exit
  %19 = load ptr, ptr %17, align 8
  %20 = getelementptr inbounds i8, ptr %19, i64 32
  %21 = load ptr, ptr %20, align 8
  call void %21(ptr noundef nonnull align 8 dereferenceable(11) %17, ptr noundef nonnull align 8 dereferenceable(36) %4) #20
  %22 = getelementptr inbounds nuw i8, ptr %17, i64 9
  %23 = load i16, ptr %22, align 1
  %.mask3.i = and i16 %23, 192
  %.not.i11 = icmp eq i16 %.mask3.i, 64
  br i1 %.not.i11, label %_ZNK4llvm16itanium_demangle4Node5printERNS0_12OutputBufferE.exit, label %24

24:                                               ; preds = %18
  %25 = load ptr, ptr %17, align 8
  %26 = getelementptr inbounds i8, ptr %25, i64 40
  %27 = load ptr, ptr %26, align 8
  call void %27(ptr noundef nonnull align 8 dereferenceable(11) %17, ptr noundef nonnull align 8 dereferenceable(36) %4) #20
  br label %_ZNK4llvm16itanium_demangle4Node5printERNS0_12OutputBufferE.exit

_ZNK4llvm16itanium_demangle4Node5printERNS0_12OutputBufferE.exit: ; preds = %24, %18, %_ZN4llvm16itanium_demangle12OutputBufferC2EPcPm.exit
  %28 = load i64, ptr %11, align 8
  %29 = add i64 %28, 1
  %30 = load i64, ptr %12, align 8
  %31 = icmp ugt i64 %29, %30
  %.pre.i = load ptr, ptr %4, align 8
  br i1 %31, label %32, label %_ZN4llvm16itanium_demangle12OutputBufferpLEc.exit

32:                                               ; preds = %_ZNK4llvm16itanium_demangle4Node5printERNS0_12OutputBufferE.exit
  %33 = add i64 %28, 993
  %34 = shl i64 %30, 1
  %spec.select.i.i = call i64 @llvm.umax.i64(i64 %34, i64 %33)
  store i64 %spec.select.i.i, ptr %12, align 8
  %35 = call ptr @realloc(ptr noundef %.pre.i, i64 noundef %spec.select.i.i) #21
  store ptr %35, ptr %4, align 8
  %36 = icmp eq ptr %35, null
  br i1 %36, label %37, label %._ZN4llvm16itanium_demangle12OutputBuffer4growEm.exit_crit_edge.i

._ZN4llvm16itanium_demangle12OutputBuffer4growEm.exit_crit_edge.i: ; preds = %32
  %.pre1.i = load i64, ptr %11, align 8
  %.pre2.i = add i64 %.pre1.i, 1
  br label %_ZN4llvm16itanium_demangle12OutputBufferpLEc.exit

37:                                               ; preds = %32
  call void @abort() #22
  unreachable

_ZN4llvm16itanium_demangle12OutputBufferpLEc.exit: ; preds = %_ZNK4llvm16itanium_demangle4Node5printERNS0_12OutputBufferE.exit, %._ZN4llvm16itanium_demangle12OutputBuffer4growEm.exit_crit_edge.i
  %.pre-phi.i = phi i64 [ %.pre2.i, %._ZN4llvm16itanium_demangle12OutputBuffer4growEm.exit_crit_edge.i ], [ %29, %_ZNK4llvm16itanium_demangle4Node5printERNS0_12OutputBufferE.exit ]
  %38 = phi i64 [ %.pre1.i, %._ZN4llvm16itanium_demangle12OutputBuffer4growEm.exit_crit_edge.i ], [ %28, %_ZNK4llvm16itanium_demangle4Node5printERNS0_12OutputBufferE.exit ]
  %39 = phi ptr [ %35, %._ZN4llvm16itanium_demangle12OutputBuffer4growEm.exit_crit_edge.i ], [ %.pre.i, %_ZNK4llvm16itanium_demangle4Node5printERNS0_12OutputBufferE.exit ]
  store i64 %.pre-phi.i, ptr %11, align 8
  %40 = getelementptr inbounds i8, ptr %39, i64 %38
  store i8 0, ptr %40, align 1
  %.not10 = icmp eq ptr %2, null
  br i1 %.not10, label %43, label %41

41:                                               ; preds = %_ZN4llvm16itanium_demangle12OutputBufferpLEc.exit
  %42 = load i64, ptr %11, align 8
  store i64 %42, ptr %2, align 8
  br label %43

43:                                               ; preds = %41, %_ZN4llvm16itanium_demangle12OutputBufferpLEc.exit
  %44 = load ptr, ptr %4, align 8
  br label %45

45:                                               ; preds = %3, %43
  %.0 = phi ptr [ %44, %43 ], [ null, %3 ]
  ret ptr %.0
}